; Function Attrs: nounwind uwtable
define internal ptr @call_function(ptr noundef readonly captures(none) %0, ptr noundef %1) #0 {
  %3 = alloca ptr, align 8
  %4 = alloca ptr, align 8
  call void @llvm.lifetime.start.p0(i64 8, ptr nonnull %3) #10
  call void @llvm.lifetime.start.p0(i64 8, ptr nonnull %4) #10
  %5 = call i32 (ptr, ptr, ...) @PyArg_ParseTuple(ptr noundef %1, ptr noundef nonnull @.str.84, ptr noundef nonnull @_parse_voidp, ptr noundef nonnull %3, ptr noundef nonnull @PyTuple_Type, ptr noundef nonnull %4) #10
  %.not = icmp eq i32 %5, 0
  br i1 %.not, label %17, label %6

6:                                                ; preds = %2
  %7 = load ptr, ptr %3, align 8, !tbaa !41
  %8 = ptrtoint ptr %7 to i64
  %9 = load ptr, ptr %4, align 8, !tbaa !3
  %10 = call i32 (ptr, ptr, ...) @PySys_Audit(ptr noundef nonnull @.str.85, ptr noundef nonnull @.str.86, i64 noundef %8, ptr noundef %9) #10
  %11 = icmp slt i32 %10, 0
  br i1 %11, label %17, label %12

12:                                               ; preds = %6
  %13 = getelementptr i8, ptr %0, i64 32
  %.val = load ptr, ptr %13, align 8, !tbaa !56
  %14 = load ptr, ptr %3, align 8, !tbaa !41
  %15 = load ptr, ptr %4, align 8, !tbaa !3
  %16 = call ptr @_ctypes_callproc(ptr noundef %.val, ptr noundef %14, ptr noundef %15, i32 noundef 0, ptr noundef null, ptr noundef null, ptr noundef null)
  br label %17

17:                                               ; preds = %6, %2, %12
  %.0 = phi ptr [ %16, %12 ], [ null, %2 ], [ null, %6 ]
  call void @llvm.lifetime.end.p0(i64 8, ptr nonnull %4) #10
  call void @llvm.lifetime.end.p0(i64 8, ptr nonnull %3) #10
  ret ptr %.0
}